target datalayout = "e-m:e-p270:32:32-p271:32:32-p272:64:64-i64:64-i128:128-f80:128-n8:16:32:64-S128"
target triple = "x86_64-pc-linux-gnu"

%"class.open3d::core::Dtype" = type { i32, i64, [16 x i8] }
%"class.std::__shared_count" = type { ptr }
%"class.open3d::core::Tensor" = type { %"class.open3d::core::IsDevice", %"class.open3d::core::SizeVector", %"class.open3d::core::SizeVector", ptr, %"class.open3d::core::Dtype", %"class.std::shared_ptr.367" }
%"class.open3d::core::IsDevice" = type { ptr }
%"class.open3d::core::SizeVector" = type { %"class.open3d::core::SmallVector" }
%"class.open3d::core::SmallVector" = type { %"class.open3d::core::SmallVectorImpl", %"struct.open3d::core::SmallVectorStorage" }
%"class.open3d::core::SmallVectorImpl" = type { %"class.open3d::core::SmallVectorTemplateBase" }
%"class.open3d::core::SmallVectorTemplateBase" = type { %"class.open3d::core::SmallVectorTemplateCommon" }
%"class.open3d::core::SmallVectorTemplateCommon" = type { %"class.open3d::core::SmallVectorBase" }
%"class.open3d::core::SmallVectorBase" = type { ptr, i32, i32 }
%"struct.open3d::core::SmallVectorStorage" = type { [32 x i8] }
%"class.std::shared_ptr.367" = type { %"class.std::__shared_ptr.368" }
%"class.std::__shared_ptr.368" = type { ptr, %"class.std::__shared_count" }
%"class.open3d::core::TensorKey" = type { %"class.std::shared_ptr.371" }
%"class.std::shared_ptr.371" = type { %"class.std::__shared_ptr.372" }
%"class.std::__shared_ptr.372" = type { ptr, %"class.std::__shared_count" }

@_ZN6open3d4core4BoolE = external global %"class.open3d::core::Dtype", align 8
@_ZN6open3d4core5Int64E = external global %"class.open3d::core::Dtype", align 8

; Function Attrs: inlinehint mustprogress nounwind ssp uwtable
define linkonce_odr hidden void @_ZNK6open3d4core6Tensor8GetDtypeEv(ptr dead_on_unwind noalias writable sret(%"class.open3d::core::Dtype") align 8 %0, ptr noundef nonnull align 8 dereferenceable(160) %1) #0 comdat align 2 !type !2678 {
  %3 = alloca ptr, align 8
  store ptr %1, ptr %3, align 8, !tbaa !2616
  %4 = load ptr, ptr %3, align 8
  %5 = getelementptr inbounds nuw %"class.open3d::core::Tensor", ptr %4, i32 0, i32 4
  call void @llvm.memcpy.p0.p0.i64(ptr align 8 %0, ptr align 8 %5, i64 32, i1 false), !tbaa.struct !2668
  ret void
}

; Function Attrs: mustprogress ssp uwtable
define internal void @_ZN6open3d4coreL11ToTensorKeyERKNS0_6TensorE(ptr dead_on_unwind noalias writable sret(%"class.open3d::core::TensorKey") align 8 %0, ptr noundef nonnull align 8 dereferenceable(160) %1) #4 personality ptr @__gxx_personality_v0 {
  %3 = alloca ptr, align 8
  %4 = alloca ptr, align 8
  %5 = alloca %"class.open3d::core::Dtype", align 8
  %6 = alloca %"class.open3d::core::Tensor", align 8
  %7 = alloca %"class.open3d::core::Dtype", align 8
  %8 = alloca ptr, align 8
  %9 = alloca i32, align 4
  store ptr %0, ptr %3, align 8
  store ptr %1, ptr %4, align 8, !tbaa !2616
  call void @llvm.lifetime.start.p0(i64 32, ptr %5) #25
  %10 = load ptr, ptr %4, align 8, !tbaa !2616
  call void @_ZNK6open3d4core6Tensor8GetDtypeEv(ptr dead_on_unwind writable sret(%"class.open3d::core::Dtype") align 8 %5, ptr noundef nonnull align 8 dereferenceable(160) %10)
  %11 = call noundef zeroext i1 @_ZNK6open3d4core5DtypeneERKS1_(ptr noundef nonnull align 8 dereferenceable(32) %5, ptr noundef nonnull align 8 dereferenceable(32) @_ZN6open3d4core4BoolE)
  call void @llvm.lifetime.end.p0(i64 32, ptr %5) #25
  br i1 %11, label %12, label %19

12:                                               ; preds = %2
  call void @llvm.lifetime.start.p0(i64 160, ptr %6) #25
  %13 = load ptr, ptr %4, align 8, !tbaa !2616
  call void @llvm.memcpy.p0.p0.i64(ptr align 8 %7, ptr align 8 @_ZN6open3d4core5Int64E, i64 32, i1 false), !tbaa.struct !2668
  call void @_ZNK6open3d4core6Tensor2ToENS0_5DtypeEb(ptr dead_on_unwind writable sret(%"class.open3d::core::Tensor") align 8 %6, ptr noundef nonnull align 8 dereferenceable(160) %13, ptr noundef byval(%"class.open3d::core::Dtype") align 8 %7, i1 noundef zeroext false)
  invoke void @_ZN6open3d4core9TensorKey11IndexTensorERKNS0_6TensorE(ptr dead_on_unwind writable sret(%"class.open3d::core::TensorKey") align 8 %0, ptr noundef nonnull align 8 dereferenceable(160) %6)
          to label %14 unwind label %15

14:                                               ; preds = %12
  call void @_ZN6open3d4core6TensorD2Ev(ptr noundef nonnull align 8 dereferenceable(160) %6) #25
  call void @llvm.lifetime.end.p0(i64 160, ptr %6) #25
  br label %21

15:                                               ; preds = %12
  %16 = landingpad { ptr, i32 }
          cleanup
  %17 = extractvalue { ptr, i32 } %16, 0
  store ptr %17, ptr %8, align 8
  %18 = extractvalue { ptr, i32 } %16, 1
  store i32 %18, ptr %9, align 4
  call void @_ZN6open3d4core6TensorD2Ev(ptr noundef nonnull align 8 dereferenceable(160) %6) #25
  call void @llvm.lifetime.end.p0(i64 160, ptr %6) #25
  br label %22

19:                                               ; preds = %2
  %20 = load ptr, ptr %4, align 8, !tbaa !2616
  call void @_ZN6open3d4core9TensorKey11IndexTensorERKNS0_6TensorE(ptr dead_on_unwind writable sret(%"class.open3d::core::TensorKey") align 8 %0, ptr noundef nonnull align 8 dereferenceable(160) %20)
  br label %21

21:                                               ; preds = %19, %14
  ret void

22:                                               ; preds = %15
  %23 = load ptr, ptr %8, align 8
  %24 = load i32, ptr %9, align 4
  %25 = insertvalue { ptr, i32 } poison, ptr %23, 0
  %26 = insertvalue { ptr, i32 } %25, i32 %24, 1
  resume { ptr, i32 } %26
}