; Function Attrs: mustprogress ssp uwtable
define internal fastcc void @_ZN6open3d4coreL11ToTensorKeyERKNS0_6TensorE(ptr dead_on_unwind noalias nonnull writable align 8 %0, ptr noundef nonnull align 8 dereferenceable(160) %1) unnamed_addr #5 personality ptr @__gxx_personality_v0 {
  %3 = alloca %"class.open3d::core::Dtype", align 8
  %4 = alloca %"class.open3d::core::Tensor", align 8
  call void @llvm.lifetime.start.p0(i64 32, ptr nonnull %3) #33
  %5 = getelementptr inbounds nuw i8, ptr %1, i64 112
  call void @llvm.memcpy.p0.p0.i64(ptr noundef nonnull align 8 dereferenceable(32) %3, ptr noundef nonnull align 8 dereferenceable(32) %5, i64 32, i1 false), !tbaa.struct !1190
  %6 = call noundef zeroext i1 @_ZNK6open3d4core5DtypeneERKS1_(ptr noundef nonnull align 8 dereferenceable(32) %3, ptr noundef nonnull align 8 dereferenceable(32) @_ZN6open3d4core4BoolE)
  call void @llvm.lifetime.end.p0(i64 32, ptr nonnull %3) #33
  br i1 %6, label %7, label %44

7:                                                ; preds = %2
  call void @llvm.lifetime.start.p0(i64 160, ptr nonnull %4) #33
  call void @_ZNK6open3d4core6Tensor2ToENS0_5DtypeEb(ptr dead_on_unwind nonnull writable sret(%"class.open3d::core::Tensor") align 8 %4, ptr noundef nonnull align 8 dereferenceable(160) %1, ptr noundef nonnull byval(%"class.open3d::core::Dtype") align 8 @_ZN6open3d4core5Int64E, i1 noundef zeroext false)
  invoke void @_ZN6open3d4core9TensorKey11IndexTensorERKNS0_6TensorE(ptr dead_on_unwind nonnull writable sret(%"class.open3d::core::TensorKey") align 8 %0, ptr noundef nonnull align 8 dereferenceable(160) %4)
          to label %8 unwind label %42

8:                                                ; preds = %7
  store ptr getelementptr inbounds nuw inrange(-16, 24) (i8, ptr @_ZTVN6open3d4core6TensorE, i64 16), ptr %4, align 8, !tbaa !292
  %9 = getelementptr inbounds nuw i8, ptr %4, i64 152
  %10 = load ptr, ptr %9, align 8, !tbaa !294
  %.not.i.i.i = icmp eq ptr %10, null
  br i1 %.not.i.i.i, label %_ZNSt12__shared_ptrIN6open3d4core4BlobELN9__gnu_cxx12_Lock_policyE2EED2Ev.exit.i, label %11

11:                                               ; preds = %8
  %12 = getelementptr inbounds nuw i8, ptr %10, i64 8
  %13 = load atomic i64, ptr %12 acquire, align 8
  %14 = icmp eq i64 %13, 4294967297
  %15 = trunc i64 %13 to i32
  br i1 %14, label %16, label %24

16:                                               ; preds = %11
  store i32 0, ptr %12, align 8, !tbaa !295
  %17 = getelementptr inbounds nuw i8, ptr %10, i64 12
  store i32 0, ptr %17, align 4, !tbaa !297
  %18 = load ptr, ptr %10, align 8, !tbaa !292
  %19 = getelementptr inbounds nuw i8, ptr %18, i64 16
  %20 = load ptr, ptr %19, align 8
  call void %20(ptr noundef nonnull align 8 dereferenceable(16) %10) #33
  %21 = load ptr, ptr %10, align 8, !tbaa !292
  %22 = getelementptr inbounds nuw i8, ptr %21, i64 24
  %23 = load ptr, ptr %22, align 8
  call void %23(ptr noundef nonnull align 8 dereferenceable(16) %10) #33
  br label %_ZNSt12__shared_ptrIN6open3d4core4BlobELN9__gnu_cxx12_Lock_policyE2EED2Ev.exit.i

24:                                               ; preds = %11
  %25 = load i8, ptr @__libc_single_threaded, align 1, !tbaa !136
  %.not.i.i.i.i = icmp eq i8 %25, 0
  br i1 %.not.i.i.i.i, label %28, label %26

26:                                               ; preds = %24
  %27 = add nsw i32 %15, -1
  store i32 %27, ptr %12, align 4, !tbaa !298
  br label %_ZN9__gnu_cxx27__exchange_and_add_dispatchEPii.exit.i.i.i.i

28:                                               ; preds = %24
  %29 = atomicrmw volatile add ptr %12, i32 -1 acq_rel, align 4
  br label %_ZN9__gnu_cxx27__exchange_and_add_dispatchEPii.exit.i.i.i.i

_ZN9__gnu_cxx27__exchange_and_add_dispatchEPii.exit.i.i.i.i: ; preds = %28, %26
  %.0.i.i.i.i.i = phi i32 [ %15, %26 ], [ %29, %28 ]
  %30 = icmp eq i32 %.0.i.i.i.i.i, 1
  br i1 %30, label %31, label %_ZNSt12__shared_ptrIN6open3d4core4BlobELN9__gnu_cxx12_Lock_policyE2EED2Ev.exit.i, !prof !299

31:                                               ; preds = %_ZN9__gnu_cxx27__exchange_and_add_dispatchEPii.exit.i.i.i.i
  call void @_ZNSt16_Sp_counted_baseILN9__gnu_cxx12_Lock_policyE2EE24_M_release_last_use_coldEv(ptr noundef nonnull align 8 dereferenceable(16) %10) #33
  br label %_ZNSt12__shared_ptrIN6open3d4core4BlobELN9__gnu_cxx12_Lock_policyE2EED2Ev.exit.i

_ZNSt12__shared_ptrIN6open3d4core4BlobELN9__gnu_cxx12_Lock_policyE2EED2Ev.exit.i: ; preds = %31, %_ZN9__gnu_cxx27__exchange_and_add_dispatchEPii.exit.i.i.i.i, %16, %8
  %32 = getelementptr inbounds nuw i8, ptr %4, i64 56
  %33 = load ptr, ptr %32, align 8, !tbaa !1172
  %34 = getelementptr inbounds nuw i8, ptr %4, i64 72
  %35 = icmp eq ptr %33, %34
  br i1 %35, label %_ZN6open3d4core11SmallVectorIlLj4EED2Ev.exit.i, label %36

36:                                               ; preds = %_ZNSt12__shared_ptrIN6open3d4core4BlobELN9__gnu_cxx12_Lock_policyE2EED2Ev.exit.i
  call void @free(ptr noundef %33) #33
  br label %_ZN6open3d4core11SmallVectorIlLj4EED2Ev.exit.i

_ZN6open3d4core11SmallVectorIlLj4EED2Ev.exit.i:   ; preds = %36, %_ZNSt12__shared_ptrIN6open3d4core4BlobELN9__gnu_cxx12_Lock_policyE2EED2Ev.exit.i
  %37 = getelementptr inbounds nuw i8, ptr %4, i64 8
  %38 = load ptr, ptr %37, align 8, !tbaa !1172
  %39 = getelementptr inbounds nuw i8, ptr %4, i64 24
  %40 = icmp eq ptr %38, %39
  br i1 %40, label %_ZN6open3d4core6TensorD2Ev.exit, label %41

41:                                               ; preds = %_ZN6open3d4core11SmallVectorIlLj4EED2Ev.exit.i
  call void @free(ptr noundef %38) #33
  br label %_ZN6open3d4core6TensorD2Ev.exit

_ZN6open3d4core6TensorD2Ev.exit:                  ; preds = %_ZN6open3d4core11SmallVectorIlLj4EED2Ev.exit.i, %41
  call void @llvm.lifetime.end.p0(i64 160, ptr nonnull %4) #33
  br label %45

42:                                               ; preds = %7
  %43 = landingpad { ptr, i32 }
          cleanup
  call void @_ZN6open3d4core6TensorD2Ev(ptr noundef nonnull align 8 dereferenceable(160) %4) #33
  call void @llvm.lifetime.end.p0(i64 160, ptr nonnull %4) #33
  resume { ptr, i32 } %43

44:                                               ; preds = %2
  call void @_ZN6open3d4core9TensorKey11IndexTensorERKNS0_6TensorE(ptr dead_on_unwind nonnull writable sret(%"class.open3d::core::TensorKey") align 8 %0, ptr noundef nonnull align 8 dereferenceable(160) %1)
  br label %45

45:                                               ; preds = %44, %_ZN6open3d4core6TensorD2Ev.exit
  ret void
}